; Function Attrs: mustprogress uwtable
define hidden void @_ZN10duckdb_re28Compiler18AddRuneRangeLatin1Eiib(ptr noundef nonnull align 8 captures(none) dereferenceable(228) %0, i32 noundef %1, i32 noundef %2, i1 noundef zeroext %3) local_unnamed_addr #0 align 2 {
  %5 = icmp sgt i32 %1, %2
  %6 = icmp sgt i32 %1, 255
  %or.cond = or i1 %6, %5
  br i1 %or.cond, label %_ZN10duckdb_re28Compiler9AddSuffixEi.exit, label %7

7:                                                ; preds = %4
  %spec.store.select = tail call i32 @llvm.smin.i32(i32 %2, i32 255)
  %8 = trunc i32 %1 to i8
  %9 = trunc i32 %spec.store.select to i8
  %10 = tail call noundef i32 @_ZN10duckdb_re28Compiler22UncachedRuneByteSuffixEhhbi(ptr noundef nonnull align 8 dereferenceable(228) %0, i8 noundef zeroext %8, i8 noundef zeroext %9, i1 noundef zeroext %3, i32 noundef 0)
  %11 = getelementptr inbounds nuw i8, ptr %0, i64 104
  %12 = load i8, ptr %11, align 8, !tbaa !49, !range !56, !noundef !57
  %13 = trunc nuw i8 %12 to i1
  br i1 %13, label %_ZN10duckdb_re28Compiler9AddSuffixEi.exit, label %14

14:                                               ; preds = %7
  %15 = getelementptr inbounds nuw i8, ptr %0, i64 208
  %16 = load i32, ptr %15, align 8, !tbaa !79
  %17 = icmp eq i32 %16, 0
  br i1 %17, label %.sink.split.i, label %18

18:                                               ; preds = %14
  %19 = getelementptr inbounds nuw i8, ptr %0, i64 108
  %20 = load i32, ptr %19, align 4, !tbaa !50
  %21 = icmp eq i32 %20, 1
  br i1 %21, label %22, label %24

22:                                               ; preds = %18
  %23 = tail call noundef i32 @_ZN10duckdb_re28Compiler18AddSuffixRecursiveEii(ptr noundef nonnull align 8 dereferenceable(228) %0, i32 noundef %16, i32 noundef %10)
  br label %.sink.split.i

24:                                               ; preds = %18
  %25 = tail call noundef i32 @_ZN10duckdb_re28Compiler9AllocInstEi(ptr noundef nonnull align 8 dereferenceable(228) %0, i32 noundef 1)
  %26 = icmp slt i32 %25, 0
  br i1 %26, label %.sink.split.i, label %27

27:                                               ; preds = %24
  %28 = zext nneg i32 %25 to i64
  %29 = getelementptr inbounds nuw i8, ptr %0, i64 128
  %30 = load ptr, ptr %29, align 8, !tbaa !55
  %31 = getelementptr inbounds nuw %"class.duckdb_re2::Prog::Inst", ptr %30, i64 %28
  %32 = load i32, ptr %15, align 8, !tbaa !79
  tail call void @_ZN10duckdb_re24Prog4Inst7InitAltEjj(ptr noundef nonnull align 4 dereferenceable(8) %31, i32 noundef %32, i32 noundef %10)
  br label %.sink.split.i

.sink.split.i:                                    ; preds = %27, %24, %22, %14
  %storemerge.sink.i = phi i32 [ %23, %22 ], [ %10, %14 ], [ %25, %27 ], [ 0, %24 ]
  store i32 %storemerge.sink.i, ptr %15, align 8, !tbaa !79
  br label %_ZN10duckdb_re28Compiler9AddSuffixEi.exit

_ZN10duckdb_re28Compiler9AddSuffixEi.exit:        ; preds = %.sink.split.i, %7, %4
  ret void
}